target datalayout = "e-m:e-p270:32:32-p271:32:32-p272:64:64-i64:64-i128:128-f80:128-n8:16:32:64-S128"
target triple = "x86_64-pc-linux-gnu"

%struct.GCRef = type { i64 }
%struct.IRType1 = type { i8 }
%union.IRIns = type { %struct.GCRef }
%struct.ASMState = type { [32 x i32], ptr, ptr, ptr, ptr, %struct.x86ModRM, i32, i32, i32, i32, i32, i32, i32, i32, i32, i32, i32, i32, i32, i32, i32, i32, i64, i64, i32, i32, i32, i32, i32, ptr, ptr, ptr, ptr, ptr, ptr, ptr, ptr, ptr, [32 x i16], [250 x i16] }
%struct.x86ModRM = type { i32, i8, i8, i8 }
%struct.anon.0 = type { i32, %struct.IRType1, i8, i8, i8 }
%struct.anon = type { i16, i16, i16, i16 }

; Function Attrs: alwaysinline nounwind uwtable
define internal ptr @emit_op(i32 noundef %0, i32 noundef %1, i32 noundef %2, i32 noundef %3, ptr noundef %4, i32 noundef %5) #3 {
  %7 = alloca ptr, align 8
  %8 = alloca i32, align 4
  %9 = alloca i32, align 4
  %10 = alloca i32, align 4
  %11 = alloca i32, align 4
  %12 = alloca ptr, align 8
  %13 = alloca i32, align 4
  %14 = alloca i32, align 4
  %15 = alloca i32, align 4
  %16 = alloca i32, align 4
  store i32 %0, ptr %8, align 4, !tbaa !11
  store i32 %1, ptr %9, align 4, !tbaa !11
  store i32 %2, ptr %10, align 4, !tbaa !11
  store i32 %3, ptr %11, align 4, !tbaa !11
  store ptr %4, ptr %12, align 8, !tbaa !13
  store i32 %5, ptr %13, align 4, !tbaa !11
  call void @llvm.lifetime.start.p0(i64 4, ptr %14) #11
  %17 = load i32, ptr %8, align 4, !tbaa !11
  %18 = trunc i32 %17 to i8
  %19 = sext i8 %18 to i32
  store i32 %19, ptr %14, align 4, !tbaa !11
  %20 = load i32, ptr %14, align 4, !tbaa !11
  %21 = icmp eq i32 %20, -60
  br i1 %21, label %22, label %48

22:                                               ; preds = %6
  %23 = load i32, ptr %9, align 4, !tbaa !11
  %24 = lshr i32 %23, 1
  %25 = and i32 %24, 4
  %26 = load i32, ptr %11, align 4, !tbaa !11
  %27 = lshr i32 %26, 2
  %28 = and i32 %27, 2
  %29 = add i32 %25, %28
  %30 = load i32, ptr %10, align 4, !tbaa !11
  %31 = lshr i32 %30, 3
  %32 = and i32 %31, 1
  %33 = add i32 %29, %32
  %34 = shl i32 %33, 13
  %35 = load i32, ptr %8, align 4, !tbaa !11
  %36 = xor i32 %35, %34
  store i32 %36, ptr %8, align 4, !tbaa !11
  %37 = load i32, ptr %8, align 4, !tbaa !11
  %38 = load ptr, ptr %12, align 8, !tbaa !13
  %39 = load i32, ptr %13, align 4, !tbaa !11
  %40 = sext i32 %39 to i64
  %41 = getelementptr inbounds i8, ptr %38, i64 %40
  %42 = getelementptr inbounds i8, ptr %41, i64 -5
  store i32 %37, ptr %42, align 4, !tbaa !11
  %43 = load ptr, ptr %12, align 8, !tbaa !13
  %44 = load i32, ptr %13, align 4, !tbaa !11
  %45 = sext i32 %44 to i64
  %46 = getelementptr inbounds i8, ptr %43, i64 %45
  %47 = getelementptr inbounds i8, ptr %46, i64 -5
  store ptr %47, ptr %7, align 8
  store i32 1, ptr %15, align 4
  br label %138

48:                                               ; preds = %6
  %49 = load i32, ptr %8, align 4, !tbaa !11
  %50 = call i1 @llvm.is.constant.i32(i32 %49)
  br i1 %50, label %51, label %63

51:                                               ; preds = %48
  %52 = load i32, ptr %14, align 4, !tbaa !11
  %53 = icmp eq i32 %52, -2
  br i1 %53, label %54, label %63

54:                                               ; preds = %51
  %55 = load i32, ptr %8, align 4, !tbaa !11
  %56 = lshr i32 %55, 24
  %57 = trunc i32 %56 to i8
  %58 = load ptr, ptr %12, align 8, !tbaa !13
  %59 = load i32, ptr %13, align 4, !tbaa !11
  %60 = sub nsw i32 %59, 2
  %61 = sext i32 %60 to i64
  %62 = getelementptr inbounds i8, ptr %58, i64 %61
  store i8 %57, ptr %62, align 1, !tbaa !25
  br label %86

63:                                               ; preds = %51, %48
  %64 = load i32, ptr %8, align 4, !tbaa !11
  %65 = call i1 @llvm.is.constant.i32(i32 %64)
  br i1 %65, label %66, label %78

66:                                               ; preds = %63
  %67 = load i32, ptr %14, align 4, !tbaa !11
  %68 = icmp eq i32 %67, -3
  br i1 %68, label %69, label %78

69:                                               ; preds = %66
  %70 = load i32, ptr %8, align 4, !tbaa !11
  %71 = lshr i32 %70, 16
  %72 = trunc i32 %71 to i16
  %73 = load ptr, ptr %12, align 8, !tbaa !13
  %74 = load i32, ptr %13, align 4, !tbaa !11
  %75 = sext i32 %74 to i64
  %76 = getelementptr inbounds i8, ptr %73, i64 %75
  %77 = getelementptr inbounds i8, ptr %76, i64 -3
  store i16 %72, ptr %77, align 2, !tbaa !29
  br label %85

78:                                               ; preds = %66, %63
  %79 = load i32, ptr %8, align 4, !tbaa !11
  %80 = load ptr, ptr %12, align 8, !tbaa !13
  %81 = load i32, ptr %13, align 4, !tbaa !11
  %82 = sext i32 %81 to i64
  %83 = getelementptr inbounds i8, ptr %80, i64 %82
  %84 = getelementptr inbounds i8, ptr %83, i64 -5
  store i32 %79, ptr %84, align 4, !tbaa !11
  br label %85

85:                                               ; preds = %78, %69
  br label %86

86:                                               ; preds = %85, %54
  %87 = load i32, ptr %14, align 4, !tbaa !11
  %88 = load i32, ptr %13, align 4, !tbaa !11
  %89 = add nsw i32 %87, %88
  %90 = load ptr, ptr %12, align 8, !tbaa !13
  %91 = sext i32 %89 to i64
  %92 = getelementptr inbounds i8, ptr %90, i64 %91
  store ptr %92, ptr %12, align 8, !tbaa !13
  call void @llvm.lifetime.start.p0(i64 4, ptr %16) #11
  %93 = load i32, ptr %9, align 4, !tbaa !11
  %94 = lshr i32 %93, 1
  %95 = and i32 %94, 260
  %96 = add i32 64, %95
  %97 = load i32, ptr %11, align 4, !tbaa !11
  %98 = lshr i32 %97, 2
  %99 = and i32 %98, 2
  %100 = add i32 %96, %99
  %101 = load i32, ptr %10, align 4, !tbaa !11
  %102 = lshr i32 %101, 3
  %103 = and i32 %102, 1
  %104 = add i32 %100, %103
  store i32 %104, ptr %16, align 4, !tbaa !11
  %105 = load i32, ptr %16, align 4, !tbaa !11
  %106 = icmp ne i32 %105, 64
  br i1 %106, label %107, label %136

107:                                              ; preds = %86
  %108 = load i32, ptr %9, align 4, !tbaa !11
  %109 = lshr i32 %108, 16
  %110 = load i32, ptr %16, align 4, !tbaa !11
  %111 = or i32 %110, %109
  store i32 %111, ptr %16, align 4, !tbaa !11
  %112 = load i32, ptr %14, align 4, !tbaa !11
  %113 = icmp eq i32 %112, -4
  br i1 %113, label %114, label %122

114:                                              ; preds = %107
  %115 = load i32, ptr %16, align 4, !tbaa !11
  %116 = trunc i32 %115 to i8
  %117 = load ptr, ptr %12, align 8, !tbaa !13
  store i8 %116, ptr %117, align 1, !tbaa !25
  %118 = load i32, ptr %8, align 4, !tbaa !11
  %119 = lshr i32 %118, 8
  %120 = trunc i32 %119 to i8
  %121 = zext i8 %120 to i32
  store i32 %121, ptr %16, align 4, !tbaa !11
  br label %131

122:                                              ; preds = %107
  %123 = load i32, ptr %8, align 4, !tbaa !11
  %124 = and i32 %123, 16777215
  %125 = icmp eq i32 %124, 6684925
  br i1 %125, label %126, label %130

126:                                              ; preds = %122
  %127 = load i32, ptr %16, align 4, !tbaa !11
  %128 = trunc i32 %127 to i8
  %129 = load ptr, ptr %12, align 8, !tbaa !13
  store i8 %128, ptr %129, align 1, !tbaa !25
  store i32 102, ptr %16, align 4, !tbaa !11
  br label %130

130:                                              ; preds = %126, %122
  br label %131

131:                                              ; preds = %130, %114
  %132 = load i32, ptr %16, align 4, !tbaa !11
  %133 = trunc i32 %132 to i8
  %134 = load ptr, ptr %12, align 8, !tbaa !13
  %135 = getelementptr inbounds i8, ptr %134, i32 -1
  store ptr %135, ptr %12, align 8, !tbaa !13
  store i8 %133, ptr %135, align 1, !tbaa !25
  br label %136

136:                                              ; preds = %131, %86
  call void @llvm.lifetime.end.p0(i64 4, ptr %16) #11
  %137 = load ptr, ptr %12, align 8, !tbaa !13
  store ptr %137, ptr %7, align 8
  store i32 1, ptr %15, align 4
  br label %138

138:                                              ; preds = %136, %22
  call void @llvm.lifetime.end.p0(i64 4, ptr %14) #11
  %139 = load ptr, ptr %7, align 8
  ret ptr %139
}

; Function Attrs: nounwind uwtable
define internal void @emit_rmro(ptr noundef %0, i32 noundef %1, i32 noundef %2, i32 noundef %3, i32 noundef %4) #0 {
  %6 = alloca ptr, align 8
  %7 = alloca i32, align 4
  %8 = alloca i32, align 4
  %9 = alloca i32, align 4
  %10 = alloca i32, align 4
  %11 = alloca ptr, align 8
  %12 = alloca i32, align 4
  store ptr %0, ptr %6, align 8, !tbaa !33
  store i32 %1, ptr %7, align 4, !tbaa !11
  store i32 %2, ptr %8, align 4, !tbaa !11
  store i32 %3, ptr %9, align 4, !tbaa !11
  store i32 %4, ptr %10, align 4, !tbaa !11
  call void @llvm.lifetime.start.p0(i64 8, ptr %11) #11
  %13 = load ptr, ptr %6, align 8, !tbaa !33
  %14 = getelementptr inbounds nuw %struct.ASMState, ptr %13, i32 0, i32 1
  %15 = load ptr, ptr %14, align 8, !tbaa !67
  store ptr %15, ptr %11, align 8, !tbaa !13
  call void @llvm.lifetime.start.p0(i64 4, ptr %12) #11
  %16 = load i32, ptr %9, align 4, !tbaa !11
  %17 = and i32 %16, 128
  %18 = icmp ne i32 %17, 0
  br i1 %18, label %61, label %19

19:                                               ; preds = %5
  %20 = load i32, ptr %9, align 4, !tbaa !11
  %21 = icmp eq i32 %20, 37
  br i1 %21, label %22, label %27

22:                                               ; preds = %19
  store i32 0, ptr %12, align 4, !tbaa !11
  %23 = load ptr, ptr %11, align 8, !tbaa !13
  %24 = getelementptr inbounds i8, ptr %23, i64 -4
  store ptr %24, ptr %11, align 8, !tbaa !13
  %25 = load i32, ptr %10, align 4, !tbaa !11
  %26 = load ptr, ptr %11, align 8, !tbaa !13
  store i32 %25, ptr %26, align 4, !tbaa !11
  br label %53

27:                                               ; preds = %19
  %28 = load i32, ptr %10, align 4, !tbaa !11
  %29 = icmp eq i32 %28, 0
  br i1 %29, label %30, label %35

30:                                               ; preds = %27
  %31 = load i32, ptr %9, align 4, !tbaa !11
  %32 = and i32 %31, 7
  %33 = icmp ne i32 %32, 5
  br i1 %33, label %34, label %35

34:                                               ; preds = %30
  store i32 0, ptr %12, align 4, !tbaa !11
  br label %52

35:                                               ; preds = %30, %27
  %36 = load i32, ptr %10, align 4, !tbaa !11
  %37 = load i32, ptr %10, align 4, !tbaa !11
  %38 = trunc i32 %37 to i8
  %39 = sext i8 %38 to i32
  %40 = icmp eq i32 %36, %39
  br i1 %40, label %41, label %46

41:                                               ; preds = %35
  %42 = load i32, ptr %10, align 4, !tbaa !11
  %43 = trunc i32 %42 to i8
  %44 = load ptr, ptr %11, align 8, !tbaa !13
  %45 = getelementptr inbounds i8, ptr %44, i32 -1
  store ptr %45, ptr %11, align 8, !tbaa !13
  store i8 %43, ptr %45, align 1, !tbaa !25
  store i32 64, ptr %12, align 4, !tbaa !11
  br label %51

46:                                               ; preds = %35
  %47 = load ptr, ptr %11, align 8, !tbaa !13
  %48 = getelementptr inbounds i8, ptr %47, i64 -4
  store ptr %48, ptr %11, align 8, !tbaa !13
  %49 = load i32, ptr %10, align 4, !tbaa !11
  %50 = load ptr, ptr %11, align 8, !tbaa !13
  store i32 %49, ptr %50, align 4, !tbaa !11
  store i32 128, ptr %12, align 4, !tbaa !11
  br label %51

51:                                               ; preds = %46, %41
  br label %52

52:                                               ; preds = %51, %34
  br label %53

53:                                               ; preds = %52, %22
  %54 = load i32, ptr %9, align 4, !tbaa !11
  %55 = and i32 %54, 7
  %56 = icmp eq i32 %55, 4
  br i1 %56, label %57, label %60

57:                                               ; preds = %53
  %58 = load ptr, ptr %11, align 8, !tbaa !13
  %59 = getelementptr inbounds i8, ptr %58, i32 -1
  store ptr %59, ptr %11, align 8, !tbaa !13
  store i8 36, ptr %59, align 1, !tbaa !25
  br label %60

60:                                               ; preds = %57, %53
  br label %69

61:                                               ; preds = %5
  %62 = load i32, ptr %10, align 4, !tbaa !11
  %63 = load ptr, ptr %11, align 8, !tbaa !13
  %64 = getelementptr inbounds i8, ptr %63, i64 -4
  store i32 %62, ptr %64, align 4, !tbaa !11
  %65 = load ptr, ptr %11, align 8, !tbaa !13
  %66 = getelementptr inbounds i8, ptr %65, i64 -5
  store i8 37, ptr %66, align 1, !tbaa !25
  %67 = load ptr, ptr %11, align 8, !tbaa !13
  %68 = getelementptr inbounds i8, ptr %67, i64 -5
  store ptr %68, ptr %11, align 8, !tbaa !13
  store i32 4, ptr %9, align 4, !tbaa !11
  store i32 0, ptr %12, align 4, !tbaa !11
  br label %69

69:                                               ; preds = %61, %60
  %70 = load i32, ptr %12, align 4, !tbaa !11
  %71 = load i32, ptr %8, align 4, !tbaa !11
  %72 = and i32 %71, 7
  %73 = shl i32 %72, 3
  %74 = add i32 %70, %73
  %75 = load i32, ptr %9, align 4, !tbaa !11
  %76 = and i32 %75, 7
  %77 = add i32 %74, %76
  %78 = trunc i32 %77 to i8
  %79 = load ptr, ptr %11, align 8, !tbaa !13
  %80 = getelementptr inbounds i8, ptr %79, i64 -1
  store i8 %78, ptr %80, align 1, !tbaa !25
  %81 = load i32, ptr %7, align 4, !tbaa !11
  %82 = load i32, ptr %8, align 4, !tbaa !11
  %83 = load i32, ptr %9, align 4, !tbaa !11
  %84 = load ptr, ptr %11, align 8, !tbaa !13
  %85 = call ptr @emit_op(i32 noundef %81, i32 noundef %82, i32 noundef %83, i32 noundef 0, ptr noundef %84, i32 noundef 0)
  %86 = load ptr, ptr %6, align 8, !tbaa !33
  %87 = getelementptr inbounds nuw %struct.ASMState, ptr %86, i32 0, i32 1
  store ptr %85, ptr %87, align 8, !tbaa !67
  call void @llvm.lifetime.end.p0(i64 4, ptr %12) #11
  call void @llvm.lifetime.end.p0(i64 8, ptr %11) #11
  ret void
}

; Function Attrs: nounwind uwtable
define internal void @asm_x87load(ptr noundef %0, i32 noundef %1) #0 {
  %3 = alloca ptr, align 8
  %4 = alloca i32, align 4
  %5 = alloca ptr, align 8
  %6 = alloca ptr, align 8
  %7 = alloca ptr, align 8
  store ptr %0, ptr %3, align 8, !tbaa !33
  store i32 %1, ptr %4, align 4, !tbaa !11
  call void @llvm.lifetime.start.p0(i64 8, ptr %5) #11
  %8 = load ptr, ptr %3, align 8, !tbaa !33
  %9 = getelementptr inbounds nuw %struct.ASMState, ptr %8, i32 0, i32 3
  %10 = load ptr, ptr %9, align 8, !tbaa !70
  %11 = load i32, ptr %4, align 4, !tbaa !11
  %12 = zext i32 %11 to i64
  %13 = getelementptr inbounds nuw %union.IRIns, ptr %10, i64 %12
  store ptr %13, ptr %5, align 8, !tbaa !37
  %14 = load ptr, ptr %5, align 8, !tbaa !37
  %15 = getelementptr inbounds nuw %struct.anon.0, ptr %14, i32 0, i32 2
  %16 = load i8, ptr %15, align 1, !tbaa !25
  %17 = zext i8 %16 to i32
  %18 = icmp eq i32 %17, 28
  br i1 %18, label %19, label %52

19:                                               ; preds = %2
  call void @llvm.lifetime.start.p0(i64 8, ptr %6) #11
  %20 = load ptr, ptr %5, align 8, !tbaa !37
  %21 = getelementptr inbounds %union.IRIns, ptr %20, i64 1
  store ptr %21, ptr %6, align 8, !tbaa !194
  %22 = load ptr, ptr %6, align 8, !tbaa !194
  %23 = load i64, ptr %22, align 8, !tbaa !25
  %24 = icmp eq i64 %23, 0
  br i1 %24, label %25, label %34

25:                                               ; preds = %19
  %26 = load ptr, ptr %3, align 8, !tbaa !33
  %27 = getelementptr inbounds nuw %struct.ASMState, ptr %26, i32 0, i32 1
  %28 = load ptr, ptr %27, align 8, !tbaa !67
  %29 = getelementptr inbounds i8, ptr %28, i64 -2
  store i16 -4391, ptr %29, align 2, !tbaa !29
  %30 = load ptr, ptr %3, align 8, !tbaa !33
  %31 = getelementptr inbounds nuw %struct.ASMState, ptr %30, i32 0, i32 1
  %32 = load ptr, ptr %31, align 8, !tbaa !67
  %33 = getelementptr inbounds i8, ptr %32, i64 -2
  store ptr %33, ptr %31, align 8, !tbaa !67
  br label %51

34:                                               ; preds = %19
  %35 = load ptr, ptr %6, align 8, !tbaa !194
  %36 = load i64, ptr %35, align 8, !tbaa !25
  %37 = icmp eq i64 %36, 4607182418800017408
  br i1 %37, label %38, label %47

38:                                               ; preds = %34
  %39 = load ptr, ptr %3, align 8, !tbaa !33
  %40 = getelementptr inbounds nuw %struct.ASMState, ptr %39, i32 0, i32 1
  %41 = load ptr, ptr %40, align 8, !tbaa !67
  %42 = getelementptr inbounds i8, ptr %41, i64 -2
  store i16 -5927, ptr %42, align 2, !tbaa !29
  %43 = load ptr, ptr %3, align 8, !tbaa !33
  %44 = getelementptr inbounds nuw %struct.ASMState, ptr %43, i32 0, i32 1
  %45 = load ptr, ptr %44, align 8, !tbaa !67
  %46 = getelementptr inbounds i8, ptr %45, i64 -2
  store ptr %46, ptr %44, align 8, !tbaa !67
  br label %50

47:                                               ; preds = %34
  %48 = load ptr, ptr %3, align 8, !tbaa !33
  %49 = load ptr, ptr %6, align 8, !tbaa !194
  call void @emit_rma(ptr noundef %48, i32 noundef -587202306, i32 noundef 0, ptr noundef %49)
  br label %50

50:                                               ; preds = %47, %38
  br label %51

51:                                               ; preds = %50, %25
  call void @llvm.lifetime.end.p0(i64 8, ptr %6) #11
  br label %111

52:                                               ; preds = %2
  %53 = load ptr, ptr %5, align 8, !tbaa !37
  %54 = getelementptr inbounds nuw %struct.anon.0, ptr %53, i32 0, i32 2
  %55 = load i8, ptr %54, align 1, !tbaa !25
  %56 = zext i8 %55 to i32
  %57 = icmp eq i32 %56, 91
  br i1 %57, label %58, label %105

58:                                               ; preds = %52
  %59 = load ptr, ptr %5, align 8, !tbaa !37
  %60 = getelementptr inbounds nuw %struct.anon, ptr %59, i32 0, i32 1
  %61 = load i16, ptr %60, align 2, !tbaa !25
  %62 = zext i16 %61 to i32
  %63 = icmp eq i32 %62, 467
  br i1 %63, label %64, label %105

64:                                               ; preds = %58
  %65 = load ptr, ptr %5, align 8, !tbaa !37
  %66 = getelementptr inbounds nuw %struct.anon.0, ptr %65, i32 0, i32 3
  %67 = load i8, ptr %66, align 2, !tbaa !25
  %68 = zext i8 %67 to i32
  %69 = and i32 %68, 128
  %70 = icmp ne i32 %69, 0
  br i1 %70, label %71, label %105

71:                                               ; preds = %64
  %72 = load ptr, ptr %5, align 8, !tbaa !37
  %73 = getelementptr inbounds nuw %struct.anon.0, ptr %72, i32 0, i32 4
  %74 = load i8, ptr %73, align 1, !tbaa !25
  %75 = zext i8 %74 to i32
  %76 = icmp ne i32 %75, 0
  br i1 %76, label %105, label %77

77:                                               ; preds = %71
  %78 = load ptr, ptr %5, align 8, !tbaa !37
  %79 = getelementptr inbounds nuw %struct.anon, ptr %78, i32 0, i32 0
  %80 = load i16, ptr %79, align 8, !tbaa !25
  %81 = zext i16 %80 to i32
  %82 = icmp slt i32 %81, 32768
  br i1 %82, label %105, label %83

83:                                               ; preds = %77
  %84 = load ptr, ptr %5, align 8, !tbaa !37
  %85 = getelementptr inbounds nuw %struct.anon, ptr %84, i32 0, i32 0
  %86 = load i16, ptr %85, align 8, !tbaa !25
  %87 = zext i16 %86 to i32
  %88 = load ptr, ptr %3, align 8, !tbaa !33
  %89 = getelementptr inbounds nuw %struct.ASMState, ptr %88, i32 0, i32 24
  %90 = load i32, ptr %89, align 8, !tbaa !78
  %91 = icmp ugt i32 %87, %90
  br i1 %91, label %92, label %105

92:                                               ; preds = %83
  call void @llvm.lifetime.start.p0(i64 8, ptr %7) #11
  %93 = load ptr, ptr %3, align 8, !tbaa !33
  %94 = getelementptr inbounds nuw %struct.ASMState, ptr %93, i32 0, i32 3
  %95 = load ptr, ptr %94, align 8, !tbaa !70
  %96 = load ptr, ptr %5, align 8, !tbaa !37
  %97 = getelementptr inbounds nuw %struct.anon, ptr %96, i32 0, i32 0
  %98 = load i16, ptr %97, align 8, !tbaa !25
  %99 = zext i16 %98 to i64
  %100 = getelementptr inbounds nuw %union.IRIns, ptr %95, i64 %99
  store ptr %100, ptr %7, align 8, !tbaa !37
  %101 = load ptr, ptr %3, align 8, !tbaa !33
  %102 = load ptr, ptr %3, align 8, !tbaa !33
  %103 = load ptr, ptr %7, align 8, !tbaa !37
  %104 = call i32 @ra_spill(ptr noundef %102, ptr noundef %103)
  call void @emit_rmro(ptr noundef %101, i32 noundef -620756738, i32 noundef 0, i32 noundef 4, i32 noundef %104)
  call void @llvm.lifetime.end.p0(i64 8, ptr %7) #11
  br label %110

105:                                              ; preds = %83, %77, %71, %64, %58, %52
  %106 = load ptr, ptr %3, align 8, !tbaa !33
  %107 = load ptr, ptr %3, align 8, !tbaa !33
  %108 = load i32, ptr %4, align 4, !tbaa !11
  %109 = call i32 @asm_fuseload(ptr noundef %107, i32 noundef %108, i32 noundef 0)
  call void @emit_mrm(ptr noundef %106, i32 noundef -587202306, i32 noundef 0, i32 noundef %109)
  br label %110

110:                                              ; preds = %105, %92
  br label %111

111:                                              ; preds = %110, %51
  call void @llvm.lifetime.end.p0(i64 8, ptr %5) #11
  ret void
}