; Function Attrs: nounwind uwtable
define internal fastcc void @asm_x87load(ptr noundef nonnull %0, i32 noundef range(i32 0, 65536) %1) unnamed_addr #0 {
  %3 = getelementptr inbounds nuw i8, ptr %0, i64 144
  %4 = load ptr, ptr %3, align 8, !tbaa !68
  %5 = zext nneg i32 %1 to i64
  %6 = getelementptr inbounds nuw %union.IRIns, ptr %4, i64 %5
  %7 = getelementptr inbounds nuw i8, ptr %6, i64 5
  %8 = load i8, ptr %7, align 1, !tbaa !20
  switch i8 %8, label %56 [
    i8 28, label %9
    i8 91, label %21
  ]

9:                                                ; preds = %2
  %10 = getelementptr inbounds nuw i8, ptr %6, i64 8
  %11 = load i64, ptr %10, align 8, !tbaa !20
  switch i64 %11, label %20 [
    i64 0, label %12
    i64 4607182418800017408, label %16
  ]

12:                                               ; preds = %9
  %13 = getelementptr inbounds nuw i8, ptr %0, i64 128
  %14 = load ptr, ptr %13, align 8, !tbaa !60
  %15 = getelementptr inbounds i8, ptr %14, i64 -2
  store i16 -4391, ptr %15, align 2, !tbaa !91
  store ptr %15, ptr %13, align 8, !tbaa !60
  br label %58

16:                                               ; preds = %9
  %17 = getelementptr inbounds nuw i8, ptr %0, i64 128
  %18 = load ptr, ptr %17, align 8, !tbaa !60
  %19 = getelementptr inbounds i8, ptr %18, i64 -2
  store i16 -5927, ptr %19, align 2, !tbaa !91
  store ptr %19, ptr %17, align 8, !tbaa !60
  br label %58

20:                                               ; preds = %9
  tail call fastcc void @emit_rma(ptr noundef %0, i32 noundef -587202306, i32 noundef 0, ptr noundef nonnull %10)
  br label %58

21:                                               ; preds = %2
  %22 = getelementptr inbounds nuw i8, ptr %6, i64 2
  %23 = load i16, ptr %22, align 2, !tbaa !20
  %24 = icmp eq i16 %23, 467
  br i1 %24, label %25, label %56

25:                                               ; preds = %21
  %26 = getelementptr inbounds nuw i8, ptr %6, i64 6
  %27 = load i8, ptr %26, align 2, !tbaa !20
  %.not = icmp sgt i8 %27, -1
  br i1 %.not, label %56, label %28

28:                                               ; preds = %25
  %29 = getelementptr inbounds nuw i8, ptr %6, i64 7
  %30 = load i8, ptr %29, align 1, !tbaa !20
  %.not28 = icmp eq i8 %30, 0
  br i1 %.not28, label %31, label %56

31:                                               ; preds = %28
  %32 = load i16, ptr %6, align 8, !tbaa !20
  %33 = icmp sgt i16 %32, -1
  br i1 %33, label %56, label %34

34:                                               ; preds = %31
  %35 = zext i16 %32 to i32
  %36 = getelementptr inbounds nuw i8, ptr %0, i64 248
  %37 = load i32, ptr %36, align 8, !tbaa !76
  %38 = icmp ult i32 %37, %35
  br i1 %38, label %39, label %56

39:                                               ; preds = %34
  %40 = zext i16 %32 to i64
  %41 = getelementptr inbounds nuw %union.IRIns, ptr %4, i64 %40
  %42 = tail call fastcc i32 @ra_spill(ptr noundef %0, ptr noundef nonnull %41)
  %43 = getelementptr inbounds nuw i8, ptr %0, i64 128
  %44 = load ptr, ptr %43, align 8, !tbaa !60
  %.not29 = icmp eq i32 %42, 0
  br i1 %.not29, label %emit_rmro.exit, label %45

45:                                               ; preds = %39
  %46 = add i32 %42, 128
  %47 = icmp ult i32 %46, 256
  br i1 %47, label %48, label %51

48:                                               ; preds = %45
  %49 = trunc i32 %42 to i8
  %50 = getelementptr inbounds i8, ptr %44, i64 -1
  store i8 %49, ptr %50, align 1, !tbaa !20
  br label %emit_rmro.exit

51:                                               ; preds = %45
  %52 = getelementptr inbounds i8, ptr %44, i64 -4
  store i32 %42, ptr %52, align 4, !tbaa !21
  br label %emit_rmro.exit

emit_rmro.exit:                                   ; preds = %39, %48, %51
  %.029.i = phi ptr [ %50, %48 ], [ %52, %51 ], [ %44, %39 ]
  %.0.i = phi i8 [ 68, %48 ], [ -124, %51 ], [ 4, %39 ]
  %53 = getelementptr inbounds i8, ptr %.029.i, i64 -1
  store i8 36, ptr %53, align 1, !tbaa !20
  %54 = getelementptr inbounds i8, ptr %.029.i, i64 -2
  store i8 %.0.i, ptr %54, align 1, !tbaa !20
  %55 = getelementptr i8, ptr %.029.i, i64 -3
  store i8 -37, ptr %55, align 1, !tbaa !20
  store ptr %55, ptr %43, align 8, !tbaa !60
  br label %58

56:                                               ; preds = %2, %34, %31, %28, %25, %21
  %57 = tail call fastcc i32 @asm_fuseload(ptr noundef %0, i32 noundef %1, i32 noundef 0)
  tail call fastcc void @emit_mrm(ptr noundef %0, i32 noundef -587202306, i32 noundef 0, i32 noundef %57)
  br label %58

58:                                               ; preds = %12, %20, %16, %emit_rmro.exit, %56
  ret void
}